; Function Attrs: nounwind uwtable
define range(i32 -387, 1) i32 @SNI_Callback(ptr noundef %0) local_unnamed_addr #5 {
  %2 = alloca i32, align 4
  call void @llvm.lifetime.start.p0(i64 4, ptr nonnull %2) #26
  store i32 0, ptr %2, align 4, !tbaa !49
  %.not = icmp eq ptr %0, null
  br i1 %.not, label %SendAlert.exit, label %3

3:                                                ; preds = %1
  %4 = load ptr, ptr %0, align 16, !tbaa !99
  %.not14 = icmp eq ptr %4, null
  br i1 %.not14, label %SendAlert.exit, label %5

5:                                                ; preds = %3
  %6 = getelementptr inbounds nuw i8, ptr %4, i64 264
  %7 = load ptr, ptr %6, align 8, !tbaa !473
  %.not15 = icmp eq ptr %7, null
  br i1 %.not15, label %SendAlert.exit, label %8

8:                                                ; preds = %5
  %9 = getelementptr inbounds nuw i8, ptr %4, i64 272
  %10 = load ptr, ptr %9, align 8, !tbaa !474
  %11 = call i32 %7(ptr noundef nonnull %0, ptr noundef nonnull %2, ptr noundef %10) #26
  switch i32 %11, label %SendAlert.exit [
    i32 1, label %12
    i32 2, label %25
  ]

12:                                               ; preds = %8
  %13 = load i32, ptr %2, align 4, !tbaa !49
  %14 = getelementptr inbounds nuw i8, ptr %0, i64 656
  %15 = getelementptr inbounds nuw i8, ptr %0, i64 660
  %16 = load i32, ptr %15, align 4, !tbaa !235
  %.not.i = icmp eq i32 %16, 0
  br i1 %.not.i, label %23, label %RetrySendAlert.exit.i

RetrySendAlert.exit.i:                            ; preds = %12
  %17 = load i32, ptr %14, align 16, !tbaa !236
  store i32 0, ptr %14, align 16, !tbaa !236
  store i32 0, ptr %15, align 4, !tbaa !235
  %18 = call fastcc i32 @SendAlert_ex(ptr noundef nonnull %0, i32 noundef %16, i32 noundef %17)
  %.not20.i = icmp eq i32 %18, 0
  br i1 %.not20.i, label %23, label %19

19:                                               ; preds = %RetrySendAlert.exit.i
  %20 = load i32, ptr %15, align 4, !tbaa !235
  %21 = icmp eq i32 %20, 0
  br i1 %21, label %22, label %SendAlert.exit

22:                                               ; preds = %19
  store i32 %13, ptr %14, align 16, !tbaa !236
  store i32 1, ptr %15, align 4, !tbaa !235
  br label %SendAlert.exit

23:                                               ; preds = %RetrySendAlert.exit.i, %12
  %24 = call fastcc i32 @SendAlert_ex(ptr noundef nonnull %0, i32 noundef 1, i32 noundef %13)
  br label %SendAlert.exit

25:                                               ; preds = %8
  %26 = load i32, ptr %2, align 4, !tbaa !49
  %27 = getelementptr inbounds nuw i8, ptr %0, i64 656
  %28 = getelementptr inbounds nuw i8, ptr %0, i64 660
  %29 = load i32, ptr %28, align 4, !tbaa !235
  %.not.i16 = icmp eq i32 %29, 0
  br i1 %.not.i16, label %35, label %RetrySendAlert.exit.i17

RetrySendAlert.exit.i17:                          ; preds = %25
  %30 = load i32, ptr %27, align 16, !tbaa !236
  store i32 0, ptr %27, align 16, !tbaa !236
  store i32 0, ptr %28, align 4, !tbaa !235
  %31 = call fastcc i32 @SendAlert_ex(ptr noundef nonnull %0, i32 noundef %29, i32 noundef %30)
  %.not20.i18 = icmp eq i32 %31, 0
  br i1 %.not20.i18, label %35, label %32

32:                                               ; preds = %RetrySendAlert.exit.i17
  %33 = load i32, ptr %28, align 4, !tbaa !235
  %cond = icmp eq i32 %33, 2
  br i1 %cond, label %SendAlert.exit, label %34

34:                                               ; preds = %32
  store i32 %26, ptr %27, align 16, !tbaa !236
  store i32 2, ptr %28, align 4, !tbaa !235
  br label %SendAlert.exit

35:                                               ; preds = %RetrySendAlert.exit.i17, %25
  %36 = call fastcc i32 @SendAlert_ex(ptr noundef nonnull %0, i32 noundef 2, i32 noundef %26)
  br label %SendAlert.exit

SendAlert.exit:                                   ; preds = %32, %35, %34, %23, %22, %19, %1, %3, %5, %8
  %.010 = phi i32 [ 0, %8 ], [ 0, %5 ], [ 0, %3 ], [ 0, %1 ], [ %24, %23 ], [ %18, %22 ], [ %18, %19 ], [ -313, %34 ], [ -313, %35 ], [ -313, %32 ]
  call void @llvm.lifetime.end.p0(i64 4, ptr nonnull %2) #26
  ret i32 %.010
}